target datalayout = "e-m:e-p270:32:32-p271:32:32-p272:64:64-i64:64-i128:128-f80:128-n8:16:32:64-S128"
target triple = "x86_64-pc-linux-gnu"

%union.UElement = type { ptr }
%"struct.std::atomic" = type { %"struct.std::__atomic_base" }
%"struct.std::__atomic_base" = type { i32 }
%"class.icu_77::UnifiedCache" = type { %"class.icu_77::UnifiedCacheBase", ptr, i32, i32, i32, i32, i32, i64, ptr }
%"class.icu_77::UnifiedCacheBase" = type { %"class.icu_77::UObject" }
%"class.icu_77::UObject" = type { ptr }
%"class.icu_77::SharedObject" = type { %"class.icu_77::UObject", i32, %"struct.std::atomic", ptr }
%struct.UHashElement = type { i32, %union.UElement, %union.UElement }
%"class.icu_77::CacheKeyBase" = type <{ %"class.icu_77::UObject", i32, i8, [3 x i8] }>

; Function Attrs: inlinehint mustprogress uwtable
define linkonce_odr noundef signext i8 @_ZNK6icu_7712SharedObject16noHardReferencesEv(ptr noundef nonnull align 8 dereferenceable(24) %0) #2 comdat align 2 {
  %2 = alloca ptr, align 8
  store ptr %0, ptr %2, align 8, !tbaa !46
  %3 = load ptr, ptr %2, align 8
  %4 = call noundef i32 @_ZNK6icu_7712SharedObject11getRefCountEv(ptr noundef nonnull align 8 dereferenceable(24) %3)
  %5 = icmp eq i32 %4, 0
  %6 = zext i1 %5 to i8
  ret i8 %6
}

; Function Attrs: mustprogress nounwind uwtable
define noundef signext i8 @_ZNK6icu_7712UnifiedCache11_inProgressEPKNS_12SharedObjectE10UErrorCode(ptr noundef nonnull align 8 dereferenceable(56) %0, ptr noundef %1, i32 noundef %2) #3 align 2 {
  %4 = alloca ptr, align 8
  %5 = alloca ptr, align 8
  %6 = alloca i32, align 4
  store ptr %0, ptr %4, align 8, !tbaa !14
  store ptr %1, ptr %5, align 8, !tbaa !46
  store i32 %2, ptr %6, align 4, !tbaa !12
  %7 = load ptr, ptr %4, align 8
  %8 = load ptr, ptr %5, align 8, !tbaa !46
  %9 = getelementptr inbounds nuw %"class.icu_77::UnifiedCache", ptr %7, i32 0, i32 8
  %10 = load ptr, ptr %9, align 8, !tbaa !40
  %11 = icmp eq ptr %8, %10
  br i1 %11, label %12, label %15

12:                                               ; preds = %3
  %13 = load i32, ptr %6, align 4, !tbaa !12
  %14 = icmp eq i32 %13, 0
  br label %15

15:                                               ; preds = %12, %3
  %16 = phi i1 [ false, %3 ], [ %14, %12 ]
  %17 = zext i1 %16 to i8
  ret i8 %17
}

; Function Attrs: inlinehint mustprogress nounwind uwtable
define linkonce_odr noundef nonnull align 4 dereferenceable(4) ptr @_ZSt3maxIiERKT_S2_S2_(ptr noundef nonnull align 4 dereferenceable(4) %0, ptr noundef nonnull align 4 dereferenceable(4) %1) #6 comdat {
  %3 = alloca ptr, align 8
  %4 = alloca ptr, align 8
  %5 = alloca ptr, align 8
  store ptr %0, ptr %4, align 8, !tbaa !63
  store ptr %1, ptr %5, align 8, !tbaa !63
  %6 = load ptr, ptr %4, align 8, !tbaa !63
  %7 = load i32, ptr %6, align 4, !tbaa !49
  %8 = load ptr, ptr %5, align 8, !tbaa !63
  %9 = load i32, ptr %8, align 4, !tbaa !49
  %10 = icmp slt i32 %7, %9
  br i1 %10, label %11, label %13

11:                                               ; preds = %2
  %12 = load ptr, ptr %5, align 8, !tbaa !63
  store ptr %12, ptr %3, align 8
  br label %15

13:                                               ; preds = %2
  %14 = load ptr, ptr %4, align 8, !tbaa !63
  store ptr %14, ptr %3, align 8
  br label %15

15:                                               ; preds = %13, %11
  %16 = load ptr, ptr %3, align 8
  ret ptr %16
}

; Function Attrs: mustprogress uwtable
define void @_ZNK6icu_7712UnifiedCache13removeSoftRefEPKNS_12SharedObjectE(ptr noundef nonnull align 8 dereferenceable(56) %0, ptr noundef %1) #0 align 2 {
  %3 = alloca ptr, align 8
  %4 = alloca ptr, align 8
  store ptr %0, ptr %3, align 8, !tbaa !14
  store ptr %1, ptr %4, align 8, !tbaa !46
  %5 = load ptr, ptr %3, align 8
  %6 = load ptr, ptr %4, align 8, !tbaa !46
  %7 = getelementptr inbounds nuw %"class.icu_77::SharedObject", ptr %6, i32 0, i32 1
  %8 = load i32, ptr %7, align 8, !tbaa !41
  %9 = add nsw i32 %8, -1
  store i32 %9, ptr %7, align 8, !tbaa !41
  %10 = icmp eq i32 %9, 0
  br i1 %10, label %11, label %30

11:                                               ; preds = %2
  %12 = getelementptr inbounds nuw %"class.icu_77::UnifiedCache", ptr %5, i32 0, i32 3
  %13 = load i32, ptr %12, align 4, !tbaa !35
  %14 = add nsw i32 %13, -1
  store i32 %14, ptr %12, align 4, !tbaa !35
  %15 = load ptr, ptr %4, align 8, !tbaa !46
  %16 = call noundef signext i8 @_ZNK6icu_7712SharedObject16noHardReferencesEv(ptr noundef nonnull align 8 dereferenceable(24) %15)
  %17 = icmp ne i8 %16, 0
  br i1 %17, label %18, label %26

18:                                               ; preds = %11
  %19 = load ptr, ptr %4, align 8, !tbaa !46
  %20 = icmp eq ptr %19, null
  br i1 %20, label %25, label %21

21:                                               ; preds = %18
  %22 = load ptr, ptr %19, align 8, !tbaa !9
  %23 = getelementptr inbounds ptr, ptr %22, i64 1
  %24 = load ptr, ptr %23, align 8
  call void %24(ptr noundef nonnull align 8 dereferenceable(24) %19) #12
  br label %25

25:                                               ; preds = %21, %18
  br label %29

26:                                               ; preds = %11
  %27 = load ptr, ptr %4, align 8, !tbaa !46
  %28 = getelementptr inbounds nuw %"class.icu_77::SharedObject", ptr %27, i32 0, i32 3
  store ptr null, ptr %28, align 8, !tbaa !44
  br label %29

29:                                               ; preds = %26, %25
  br label %30

30:                                               ; preds = %29, %2
  ret void
}

; Function Attrs: mustprogress uwtable
define noundef signext i8 @_ZNK6icu_7712UnifiedCache12_isEvictableEPK12UHashElement(ptr noundef nonnull align 8 dereferenceable(56) %0, ptr noundef %1) #0 align 2 {
  %3 = alloca i8, align 1
  %4 = alloca ptr, align 8
  %5 = alloca ptr, align 8
  %6 = alloca ptr, align 8
  %7 = alloca ptr, align 8
  %8 = alloca i32, align 4
  store ptr %0, ptr %4, align 8, !tbaa !14
  store ptr %1, ptr %5, align 8, !tbaa !56
  %9 = load ptr, ptr %4, align 8
  call void @llvm.lifetime.start.p0(i64 8, ptr %6) #12
  %10 = load ptr, ptr %5, align 8, !tbaa !56
  %11 = getelementptr inbounds nuw %struct.UHashElement, ptr %10, i32 0, i32 2
  %12 = load ptr, ptr %11, align 8, !tbaa !3
  store ptr %12, ptr %6, align 8, !tbaa !6
  call void @llvm.lifetime.start.p0(i64 8, ptr %7) #12
  %13 = load ptr, ptr %5, align 8, !tbaa !56
  %14 = getelementptr inbounds nuw %struct.UHashElement, ptr %13, i32 0, i32 1
  %15 = load ptr, ptr %14, align 8, !tbaa !3
  store ptr %15, ptr %7, align 8, !tbaa !46
  %16 = load ptr, ptr %7, align 8, !tbaa !46
  %17 = load ptr, ptr %6, align 8, !tbaa !6
  %18 = getelementptr inbounds nuw %"class.icu_77::CacheKeyBase", ptr %17, i32 0, i32 1
  %19 = load i32, ptr %18, align 8, !tbaa !60
  %20 = call noundef signext i8 @_ZNK6icu_7712UnifiedCache11_inProgressEPKNS_12SharedObjectE10UErrorCode(ptr noundef nonnull align 8 dereferenceable(56) %9, ptr noundef %16, i32 noundef %19)
  %21 = icmp ne i8 %20, 0
  br i1 %21, label %22, label %23

22:                                               ; preds = %2
  store i8 0, ptr %3, align 1
  store i32 1, ptr %8, align 4
  br label %42

23:                                               ; preds = %2
  %24 = load ptr, ptr %6, align 8, !tbaa !6
  %25 = getelementptr inbounds nuw %"class.icu_77::CacheKeyBase", ptr %24, i32 0, i32 2
  %26 = load i8, ptr %25, align 4, !tbaa !62
  %27 = icmp ne i8 %26, 0
  br i1 %27, label %28, label %39

28:                                               ; preds = %23
  %29 = load ptr, ptr %7, align 8, !tbaa !46
  %30 = getelementptr inbounds nuw %"class.icu_77::SharedObject", ptr %29, i32 0, i32 1
  %31 = load i32, ptr %30, align 8, !tbaa !41
  %32 = icmp eq i32 %31, 1
  br i1 %32, label %33, label %37

33:                                               ; preds = %28
  %34 = load ptr, ptr %7, align 8, !tbaa !46
  %35 = call noundef signext i8 @_ZNK6icu_7712SharedObject16noHardReferencesEv(ptr noundef nonnull align 8 dereferenceable(24) %34)
  %36 = icmp ne i8 %35, 0
  br label %37

37:                                               ; preds = %33, %28
  %38 = phi i1 [ false, %28 ], [ %36, %33 ]
  br label %39

39:                                               ; preds = %37, %23
  %40 = phi i1 [ true, %23 ], [ %38, %37 ]
  %41 = zext i1 %40 to i8
  store i8 %41, ptr %3, align 1
  store i32 1, ptr %8, align 4
  br label %42

42:                                               ; preds = %39, %22
  call void @llvm.lifetime.end.p0(i64 8, ptr %7) #12
  call void @llvm.lifetime.end.p0(i64 8, ptr %6) #12
  %43 = load i8, ptr %3, align 1
  ret i8 %43
}

; Function Attrs: mustprogress uwtable
define noundef ptr @_ZNK6icu_7712UnifiedCache12_nextElementEv(ptr noundef nonnull align 8 dereferenceable(56) %0) #0 align 2 {
  %2 = alloca ptr, align 8
  %3 = alloca ptr, align 8
  %4 = alloca ptr, align 8
  %5 = alloca i32, align 4
  store ptr %0, ptr %3, align 8, !tbaa !14
  %6 = load ptr, ptr %3, align 8
  call void @llvm.lifetime.start.p0(i64 8, ptr %4) #12
  %7 = getelementptr inbounds nuw %"class.icu_77::UnifiedCache", ptr %6, i32 0, i32 1
  %8 = load ptr, ptr %7, align 8, !tbaa !27
  %9 = getelementptr inbounds nuw %"class.icu_77::UnifiedCache", ptr %6, i32 0, i32 2
  %10 = call ptr @uhash_nextElement_77(ptr noundef %8, ptr noundef %9)
  store ptr %10, ptr %4, align 8, !tbaa !56
  %11 = load ptr, ptr %4, align 8, !tbaa !56
  %12 = icmp eq ptr %11, null
  br i1 %12, label %13, label %19

13:                                               ; preds = %1
  %14 = getelementptr inbounds nuw %"class.icu_77::UnifiedCache", ptr %6, i32 0, i32 2
  store i32 -1, ptr %14, align 8, !tbaa !34
  %15 = getelementptr inbounds nuw %"class.icu_77::UnifiedCache", ptr %6, i32 0, i32 1
  %16 = load ptr, ptr %15, align 8, !tbaa !27
  %17 = getelementptr inbounds nuw %"class.icu_77::UnifiedCache", ptr %6, i32 0, i32 2
  %18 = call ptr @uhash_nextElement_77(ptr noundef %16, ptr noundef %17)
  store ptr %18, ptr %2, align 8
  store i32 1, ptr %5, align 4
  br label %21

19:                                               ; preds = %1
  %20 = load ptr, ptr %4, align 8, !tbaa !56
  store ptr %20, ptr %2, align 8
  store i32 1, ptr %5, align 4
  br label %21

21:                                               ; preds = %19, %13
  call void @llvm.lifetime.end.p0(i64 8, ptr %4) #12
  %22 = load ptr, ptr %2, align 8
  ret ptr %22
}

; Function Attrs: mustprogress uwtable
define noundef i32 @_ZNK6icu_7712UnifiedCache27_computeCountOfItemsToEvictEv(ptr noundef nonnull align 8 dereferenceable(56) %0) #0 align 2 {
  %2 = alloca ptr, align 8
  %3 = alloca i32, align 4
  %4 = alloca i32, align 4
  %5 = alloca i32, align 4
  %6 = alloca i32, align 4
  %7 = alloca i32, align 4
  %8 = alloca i32, align 4
  %9 = alloca i32, align 4
  store ptr %0, ptr %2, align 8, !tbaa !14
  %10 = load ptr, ptr %2, align 8
  call void @llvm.lifetime.start.p0(i64 4, ptr %3) #12
  %11 = getelementptr inbounds nuw %"class.icu_77::UnifiedCache", ptr %10, i32 0, i32 1
  %12 = load ptr, ptr %11, align 8, !tbaa !27
  %13 = call i32 @uhash_count_77(ptr noundef %12)
  store i32 %13, ptr %3, align 4, !tbaa !49
  call void @llvm.lifetime.start.p0(i64 4, ptr %4) #12
  %14 = load i32, ptr %3, align 4, !tbaa !49
  %15 = getelementptr inbounds nuw %"class.icu_77::UnifiedCache", ptr %10, i32 0, i32 4
  %16 = load i32, ptr %15, align 8, !tbaa !36
  %17 = sub nsw i32 %14, %16
  store i32 %17, ptr %4, align 4, !tbaa !49
  call void @llvm.lifetime.start.p0(i64 4, ptr %5) #12
  %18 = getelementptr inbounds nuw %"class.icu_77::UnifiedCache", ptr %10, i32 0, i32 4
  %19 = load i32, ptr %18, align 8, !tbaa !36
  %20 = getelementptr inbounds nuw %"class.icu_77::UnifiedCache", ptr %10, i32 0, i32 6
  %21 = load i32, ptr %20, align 8, !tbaa !38
  %22 = mul nsw i32 %19, %21
  %23 = sdiv i32 %22, 100
  store i32 %23, ptr %5, align 4, !tbaa !49
  call void @llvm.lifetime.start.p0(i64 4, ptr %6) #12
  %24 = getelementptr inbounds nuw %"class.icu_77::UnifiedCache", ptr %10, i32 0, i32 5
  %25 = call noundef nonnull align 4 dereferenceable(4) ptr @_ZSt3maxIiERKT_S2_S2_(ptr noundef nonnull align 4 dereferenceable(4) %5, ptr noundef nonnull align 4 dereferenceable(4) %24)
  %26 = load i32, ptr %25, align 4, !tbaa !49
  store i32 %26, ptr %6, align 4, !tbaa !49
  call void @llvm.lifetime.start.p0(i64 4, ptr %7) #12
  call void @llvm.lifetime.start.p0(i64 4, ptr %8) #12
  store i32 0, ptr %8, align 4, !tbaa !49
  call void @llvm.lifetime.start.p0(i64 4, ptr %9) #12
  %27 = load i32, ptr %4, align 4, !tbaa !49
  %28 = load i32, ptr %6, align 4, !tbaa !49
  %29 = sub nsw i32 %27, %28
  store i32 %29, ptr %9, align 4, !tbaa !49
  %30 = call noundef nonnull align 4 dereferenceable(4) ptr @_ZSt3maxIiERKT_S2_S2_(ptr noundef nonnull align 4 dereferenceable(4) %8, ptr noundef nonnull align 4 dereferenceable(4) %9)
  %31 = load i32, ptr %30, align 4, !tbaa !49
  call void @llvm.lifetime.end.p0(i64 4, ptr %9) #12
  call void @llvm.lifetime.end.p0(i64 4, ptr %8) #12
  store i32 %31, ptr %7, align 4, !tbaa !49
  %32 = load i32, ptr %7, align 4, !tbaa !49
  call void @llvm.lifetime.end.p0(i64 4, ptr %7) #12
  call void @llvm.lifetime.end.p0(i64 4, ptr %6) #12
  call void @llvm.lifetime.end.p0(i64 4, ptr %5) #12
  call void @llvm.lifetime.end.p0(i64 4, ptr %4) #12
  call void @llvm.lifetime.end.p0(i64 4, ptr %3) #12
  ret i32 %32
}

; Function Attrs: mustprogress uwtable
define void @_ZNK6icu_7712UnifiedCache17_runEvictionSliceEv(ptr noundef nonnull align 8 dereferenceable(56) %0) #0 align 2 {
  %2 = alloca ptr, align 8
  %3 = alloca i32, align 4
  %4 = alloca i32, align 4
  %5 = alloca i32, align 4
  %6 = alloca ptr, align 8
  %7 = alloca ptr, align 8
  store ptr %0, ptr %2, align 8, !tbaa !14
  %8 = load ptr, ptr %2, align 8
  call void @llvm.lifetime.start.p0(i64 4, ptr %3) #12
  %9 = call noundef i32 @_ZNK6icu_7712UnifiedCache27_computeCountOfItemsToEvictEv(ptr noundef nonnull align 8 dereferenceable(56) %8)
  store i32 %9, ptr %3, align 4, !tbaa !49
  %10 = load i32, ptr %3, align 4, !tbaa !49
  %11 = icmp sle i32 %10, 0
  br i1 %11, label %12, label %13

12:                                               ; preds = %1
  store i32 1, ptr %4, align 4
  br label %56

13:                                               ; preds = %1
  call void @llvm.lifetime.start.p0(i64 4, ptr %5) #12
  store i32 0, ptr %5, align 4, !tbaa !49
  br label %14

14:                                               ; preds = %51, %13
  %15 = load i32, ptr %5, align 4, !tbaa !49
  %16 = icmp slt i32 %15, 10
  br i1 %16, label %18, label %17

17:                                               ; preds = %14
  store i32 2, ptr %4, align 4
  br label %54

18:                                               ; preds = %14
  call void @llvm.lifetime.start.p0(i64 8, ptr %6) #12
  %19 = call noundef ptr @_ZNK6icu_7712UnifiedCache12_nextElementEv(ptr noundef nonnull align 8 dereferenceable(56) %8)
  store ptr %19, ptr %6, align 8, !tbaa !56
  %20 = load ptr, ptr %6, align 8, !tbaa !56
  %21 = icmp eq ptr %20, null
  br i1 %21, label %22, label %23

22:                                               ; preds = %18
  store i32 2, ptr %4, align 4
  br label %48

23:                                               ; preds = %18
  %24 = load ptr, ptr %6, align 8, !tbaa !56
  %25 = call noundef signext i8 @_ZNK6icu_7712UnifiedCache12_isEvictableEPK12UHashElement(ptr noundef nonnull align 8 dereferenceable(56) %8, ptr noundef %24)
  %26 = icmp ne i8 %25, 0
  br i1 %26, label %27, label %47

27:                                               ; preds = %23
  call void @llvm.lifetime.start.p0(i64 8, ptr %7) #12
  %28 = load ptr, ptr %6, align 8, !tbaa !56
  %29 = getelementptr inbounds nuw %struct.UHashElement, ptr %28, i32 0, i32 1
  %30 = load ptr, ptr %29, align 8, !tbaa !3
  store ptr %30, ptr %7, align 8, !tbaa !46
  %31 = getelementptr inbounds nuw %"class.icu_77::UnifiedCache", ptr %8, i32 0, i32 1
  %32 = load ptr, ptr %31, align 8, !tbaa !27
  %33 = load ptr, ptr %6, align 8, !tbaa !56
  %34 = call ptr @uhash_removeElement_77(ptr noundef %32, ptr noundef %33)
  %35 = load ptr, ptr %7, align 8, !tbaa !46
  call void @_ZNK6icu_7712UnifiedCache13removeSoftRefEPKNS_12SharedObjectE(ptr noundef nonnull align 8 dereferenceable(56) %8, ptr noundef %35)
  %36 = getelementptr inbounds nuw %"class.icu_77::UnifiedCache", ptr %8, i32 0, i32 7
  %37 = load i64, ptr %36, align 8, !tbaa !39
  %38 = add nsw i64 %37, 1
  store i64 %38, ptr %36, align 8, !tbaa !39
  %39 = load i32, ptr %3, align 4, !tbaa !49
  %40 = add nsw i32 %39, -1
  store i32 %40, ptr %3, align 4, !tbaa !49
  %41 = icmp eq i32 %40, 0
  br i1 %41, label %42, label %43

42:                                               ; preds = %27
  store i32 2, ptr %4, align 4
  br label %44

43:                                               ; preds = %27
  store i32 0, ptr %4, align 4
  br label %44

44:                                               ; preds = %43, %42
  call void @llvm.lifetime.end.p0(i64 8, ptr %7) #12
  %45 = load i32, ptr %4, align 4
  switch i32 %45, label %48 [
    i32 0, label %46
  ]

46:                                               ; preds = %44
  br label %47

47:                                               ; preds = %46, %23
  store i32 0, ptr %4, align 4
  br label %48

48:                                               ; preds = %47, %44, %22
  call void @llvm.lifetime.end.p0(i64 8, ptr %6) #12
  %49 = load i32, ptr %4, align 4
  switch i32 %49, label %54 [
    i32 0, label %50
  ]

50:                                               ; preds = %48
  br label %51

51:                                               ; preds = %50
  %52 = load i32, ptr %5, align 4, !tbaa !49
  %53 = add nsw i32 %52, 1
  store i32 %53, ptr %5, align 4, !tbaa !49
  br label %14, !llvm.loop !59

54:                                               ; preds = %48, %17
  call void @llvm.lifetime.end.p0(i64 4, ptr %5) #12
  br label %55

55:                                               ; preds = %54
  store i32 0, ptr %4, align 4
  br label %56

56:                                               ; preds = %55, %12
  call void @llvm.lifetime.end.p0(i64 4, ptr %3) #12
  %57 = load i32, ptr %4, align 4
  switch i32 %57, label %59 [
    i32 0, label %58
    i32 1, label %58
  ]

58:                                               ; preds = %56, %56
  ret void

59:                                               ; preds = %56
  unreachable
}