; Function Attrs: mustprogress uwtable
define void @_ZNK6icu_7712UnifiedCache17_runEvictionSliceEv(ptr noundef nonnull align 8 dereferenceable(56) %0) local_unnamed_addr #0 align 2 {
  %2 = getelementptr inbounds nuw i8, ptr %0, i64 8
  %3 = load ptr, ptr %2, align 8, !tbaa !21
  %4 = tail call i32 @uhash_count_77(ptr noundef %3)
  %5 = getelementptr inbounds nuw i8, ptr %0, i64 24
  %6 = load i32, ptr %5, align 8, !tbaa !30
  %7 = getelementptr inbounds nuw i8, ptr %0, i64 32
  %8 = load i32, ptr %7, align 8, !tbaa !32
  %9 = mul nsw i32 %8, %6
  %10 = sdiv i32 %9, 100
  %11 = getelementptr inbounds nuw i8, ptr %0, i64 28
  %12 = load i32, ptr %11, align 4, !tbaa !46
  %.sroa.speculated8.i = tail call i32 @llvm.smax.i32(i32 %10, i32 %12)
  %13 = add i32 %6, %.sroa.speculated8.i
  %14 = sub i32 %4, %13
  %15 = icmp slt i32 %14, 1
  br i1 %15, label %.thread30, label %.preheader

.preheader:                                       ; preds = %1
  %16 = getelementptr inbounds nuw i8, ptr %0, i64 16
  %17 = getelementptr inbounds nuw i8, ptr %0, i64 48
  %18 = getelementptr inbounds nuw i8, ptr %0, i64 20
  %19 = getelementptr inbounds nuw i8, ptr %0, i64 40
  br label %20

20:                                               ; preds = %.preheader, %.thread
  %.036 = phi i32 [ %14, %.preheader ], [ %.129, %.thread ]
  %.01435 = phi i32 [ 0, %.preheader ], [ %64, %.thread ]
  %21 = load ptr, ptr %2, align 8, !tbaa !21
  %22 = tail call ptr @uhash_nextElement_77(ptr noundef %21, ptr noundef nonnull %16)
  %23 = icmp eq ptr %22, null
  br i1 %23, label %_ZNK6icu_7712UnifiedCache12_nextElementEv.exit, label %_ZNK6icu_7712UnifiedCache12_nextElementEv.exit.thread

_ZNK6icu_7712UnifiedCache12_nextElementEv.exit:   ; preds = %20
  store i32 -1, ptr %16, align 8, !tbaa !28
  %24 = load ptr, ptr %2, align 8, !tbaa !21
  %25 = tail call ptr @uhash_nextElement_77(ptr noundef %24, ptr noundef nonnull %16)
  %26 = icmp eq ptr %25, null
  br i1 %26, label %.thread30, label %_ZNK6icu_7712UnifiedCache12_nextElementEv.exit.thread

_ZNK6icu_7712UnifiedCache12_nextElementEv.exit.thread: ; preds = %20, %_ZNK6icu_7712UnifiedCache12_nextElementEv.exit
  %.0.i20 = phi ptr [ %25, %_ZNK6icu_7712UnifiedCache12_nextElementEv.exit ], [ %22, %20 ]
  %27 = getelementptr inbounds nuw i8, ptr %.0.i20, i64 16
  %28 = load ptr, ptr %27, align 8, !tbaa !41
  %29 = getelementptr inbounds nuw i8, ptr %.0.i20, i64 8
  %30 = load ptr, ptr %29, align 8, !tbaa !41
  %31 = getelementptr inbounds nuw i8, ptr %28, i64 8
  %32 = load i32, ptr %31, align 8, !tbaa !42
  %33 = load ptr, ptr %17, align 8, !tbaa !33
  %34 = icmp ne ptr %30, %33
  %35 = icmp ne i32 %32, 0
  %.not11.i = or i1 %35, %34
  br i1 %.not11.i, label %36, label %.thread

36:                                               ; preds = %_ZNK6icu_7712UnifiedCache12_nextElementEv.exit.thread
  %37 = getelementptr inbounds nuw i8, ptr %28, i64 12
  %38 = load i8, ptr %37, align 4, !tbaa !44
  %.not8.i = icmp eq i8 %38, 0
  br i1 %.not8.i, label %_ZNK6icu_7712UnifiedCache12_isEvictableEPK12UHashElement.exit.thread23, label %39

39:                                               ; preds = %36
  %40 = getelementptr inbounds nuw i8, ptr %30, i64 8
  %41 = load i32, ptr %40, align 8, !tbaa !34
  %42 = icmp eq i32 %41, 1
  br i1 %42, label %_ZNK6icu_7712UnifiedCache12_isEvictableEPK12UHashElement.exit, label %.thread

_ZNK6icu_7712UnifiedCache12_isEvictableEPK12UHashElement.exit: ; preds = %39
  %43 = tail call noundef i32 @_ZNK6icu_7712SharedObject11getRefCountEv(ptr noundef nonnull align 8 dereferenceable(24) %30)
  %.not = icmp eq i32 %43, 0
  br i1 %.not, label %_ZNK6icu_7712UnifiedCache12_isEvictableEPK12UHashElement.exit._ZNK6icu_7712UnifiedCache12_isEvictableEPK12UHashElement.exit.thread23_crit_edge, label %.thread

_ZNK6icu_7712UnifiedCache12_isEvictableEPK12UHashElement.exit._ZNK6icu_7712UnifiedCache12_isEvictableEPK12UHashElement.exit.thread23_crit_edge: ; preds = %_ZNK6icu_7712UnifiedCache12_isEvictableEPK12UHashElement.exit
  %.pre = load ptr, ptr %29, align 8, !tbaa !41
  br label %_ZNK6icu_7712UnifiedCache12_isEvictableEPK12UHashElement.exit.thread23

_ZNK6icu_7712UnifiedCache12_isEvictableEPK12UHashElement.exit.thread23: ; preds = %_ZNK6icu_7712UnifiedCache12_isEvictableEPK12UHashElement.exit._ZNK6icu_7712UnifiedCache12_isEvictableEPK12UHashElement.exit.thread23_crit_edge, %36
  %44 = phi ptr [ %.pre, %_ZNK6icu_7712UnifiedCache12_isEvictableEPK12UHashElement.exit._ZNK6icu_7712UnifiedCache12_isEvictableEPK12UHashElement.exit.thread23_crit_edge ], [ %30, %36 ]
  %45 = load ptr, ptr %2, align 8, !tbaa !21
  %46 = tail call ptr @uhash_removeElement_77(ptr noundef %45, ptr noundef nonnull %.0.i20)
  %47 = getelementptr inbounds nuw i8, ptr %44, i64 8
  %48 = load i32, ptr %47, align 8, !tbaa !34
  %49 = add nsw i32 %48, -1
  store i32 %49, ptr %47, align 8, !tbaa !34
  %50 = icmp eq i32 %49, 0
  br i1 %50, label %51, label %_ZNK6icu_7712UnifiedCache13removeSoftRefEPKNS_12SharedObjectE.exit

51:                                               ; preds = %_ZNK6icu_7712UnifiedCache12_isEvictableEPK12UHashElement.exit.thread23
  %52 = load i32, ptr %18, align 4, !tbaa !29
  %53 = add nsw i32 %52, -1
  store i32 %53, ptr %18, align 4, !tbaa !29
  %54 = tail call noundef i32 @_ZNK6icu_7712SharedObject11getRefCountEv(ptr noundef nonnull align 8 dereferenceable(24) %44)
  %.not.i = icmp eq i32 %54, 0
  br i1 %.not.i, label %55, label %59

55:                                               ; preds = %51
  %56 = load ptr, ptr %44, align 8, !tbaa !3
  %57 = getelementptr inbounds nuw i8, ptr %56, i64 8
  %58 = load ptr, ptr %57, align 8
  tail call void %58(ptr noundef nonnull align 8 dereferenceable(24) %44) #16
  br label %_ZNK6icu_7712UnifiedCache13removeSoftRefEPKNS_12SharedObjectE.exit

59:                                               ; preds = %51
  %60 = getelementptr inbounds nuw i8, ptr %44, i64 16
  store ptr null, ptr %60, align 8, !tbaa !37
  br label %_ZNK6icu_7712UnifiedCache13removeSoftRefEPKNS_12SharedObjectE.exit

_ZNK6icu_7712UnifiedCache13removeSoftRefEPKNS_12SharedObjectE.exit: ; preds = %_ZNK6icu_7712UnifiedCache12_isEvictableEPK12UHashElement.exit.thread23, %55, %59
  %61 = load i64, ptr %19, align 8, !tbaa !38
  %62 = add nsw i64 %61, 1
  store i64 %62, ptr %19, align 8, !tbaa !38
  %63 = add nsw i32 %.036, -1
  %.not17 = icmp eq i32 %63, 0
  br i1 %.not17, label %.thread30, label %.thread

.thread:                                          ; preds = %39, %_ZNK6icu_7712UnifiedCache12_nextElementEv.exit.thread, %_ZNK6icu_7712UnifiedCache13removeSoftRefEPKNS_12SharedObjectE.exit, %_ZNK6icu_7712UnifiedCache12_isEvictableEPK12UHashElement.exit
  %.129 = phi i32 [ %63, %_ZNK6icu_7712UnifiedCache13removeSoftRefEPKNS_12SharedObjectE.exit ], [ %.036, %_ZNK6icu_7712UnifiedCache12_isEvictableEPK12UHashElement.exit ], [ %.036, %_ZNK6icu_7712UnifiedCache12_nextElementEv.exit.thread ], [ %.036, %39 ]
  %64 = add nuw nsw i32 %.01435, 1
  %exitcond.not = icmp eq i32 %64, 10
  br i1 %exitcond.not, label %.thread30, label %20, !llvm.loop !47

.thread30:                                        ; preds = %_ZNK6icu_7712UnifiedCache13removeSoftRefEPKNS_12SharedObjectE.exit, %_ZNK6icu_7712UnifiedCache12_nextElementEv.exit, %.thread, %1
  ret void
}